#include <math.h>
#include <stdio.h>
#include <stdlib.h>
#include <string.h>

int main()
{
	int n, i, j, m;
	int a[20000];
	scanf("%d\n", &n);
	for(i=1;i<=n;i++)
	{
		scanf("%d ", &a[i-1]);
	}
	printf("%d", a[0]);
	for(j=2;j<=n;j++)
	{
		for(m=1;m<=j-1;m++)
		{
		    if(a[j-1]==a[m-1]) 
			{
				break;
			}
		}
		if(m==j) printf(" %d", a[j-1]);
	}
	return 0;
}